; Function Attrs: nounwind uwtable
define ptr @l_Lean_Compiler_LCNF_PassInstaller_replacePass___elambda__1___boxed(ptr noundef %0, ptr noundef %1, ptr noundef %2, ptr noundef %3, ptr noundef %4, ptr noundef %5, ptr noundef %6) #1 {
  %8 = tail call ptr @l_Lean_Compiler_LCNF_PassInstaller_replacePass___elambda__1(ptr noundef %0, ptr noundef %1, ptr noundef %2, ptr noundef %3, ptr noundef %4, ptr noundef %5, ptr noundef %6)
  %9 = ptrtoint ptr %5 to i64
  %10 = and i64 %9, 1
  %.not = icmp eq i64 %10, 0
  br i1 %.not, label %11, label %lean_dec.exit10

11:                                               ; preds = %7
  %12 = load i32, ptr %5, align 4, !tbaa !4
  %13 = icmp sgt i32 %12, 1
  br i1 %13, label %14, label %16, !prof !9

14:                                               ; preds = %11
  %15 = add nsw i32 %12, -1
  store i32 %15, ptr %5, align 4, !tbaa !4
  br label %lean_dec.exit10

16:                                               ; preds = %11
  %.not.i = icmp eq i32 %12, 0
  br i1 %.not.i, label %lean_dec.exit10, label %17

17:                                               ; preds = %16
  tail call void @lean_dec_ref_cold(ptr noundef nonnull %5) #6
  br label %lean_dec.exit10

lean_dec.exit10:                                  ; preds = %17, %16, %14, %7
  %18 = ptrtoint ptr %4 to i64
  %19 = and i64 %18, 1
  %.not13 = icmp eq i64 %19, 0
  br i1 %.not13, label %20, label %lean_dec.exit

20:                                               ; preds = %lean_dec.exit10
  %21 = load i32, ptr %4, align 4, !tbaa !4
  %22 = icmp sgt i32 %21, 1
  br i1 %22, label %23, label %25, !prof !9

23:                                               ; preds = %20
  %24 = add nsw i32 %21, -1
  store i32 %24, ptr %4, align 4, !tbaa !4
  br label %lean_dec.exit

25:                                               ; preds = %20
  %.not.i11 = icmp eq i32 %21, 0
  br i1 %.not.i11, label %lean_dec.exit, label %26

26:                                               ; preds = %25
  tail call void @lean_dec_ref_cold(ptr noundef nonnull %4) #6
  br label %lean_dec.exit

lean_dec.exit:                                    ; preds = %26, %25, %23, %lean_dec.exit10
  ret ptr %8
}